; ModuleID = '4/39.c'
source_filename = "4/39.c"
target datalayout = "e-m:e-p270:32:32-p271:32:32-p272:64:64-i64:64-f80:128-n8:16:32:64-S128"
target triple = "x86_64-pc-linux-gnu"

@.str = private unnamed_addr constant [6 x i8] c"%d %d\00", align 1
@.str.1 = private unnamed_addr constant [3 x i8] c"%d\00", align 1
@.str.2 = private unnamed_addr constant [4 x i8] c"%d\0A\00", align 1

; Function Attrs: noinline nounwind uwtable
define dso_local void @main() #0 {
  %1 = alloca i32, align 4
  %2 = alloca i32, align 4
  %3 = alloca i32, align 4
  %4 = alloca i32, align 4
  %5 = alloca i32, align 4
  %6 = alloca i32*, align 8
  %7 = call i32 (i8*, ...) @__isoc99_scanf(i8* getelementptr inbounds ([6 x i8], [6 x i8]* @.str, i64 0, i64 0), i32* %3, i32* %4)
  %8 = load i32, i32* %4, align 4
  %9 = zext i32 %8 to i64
  %10 = load i32, i32* %4, align 4
  %11 = zext i32 %10 to i64
  %12 = load i32, i32* %3, align 4
  %13 = sext i32 %12 to i64
  %14 = load i32, i32* %4, align 4
  %15 = sext i32 %14 to i64
  %16 = mul i64 %15, 4
  %17 = call noalias i8* @calloc(i64 %13, i64 %16) #3
  %18 = bitcast i8* %17 to i32*
  store i32* %18, i32** %6, align 8
  store i32 0, i32* %1, align 4
  br label %19

19:                                               ; preds = %42, %0
  %20 = load i32, i32* %1, align 4
  %21 = load i32, i32* %3, align 4
  %22 = icmp slt i32 %20, %21
  br i1 %22, label %23, label %45

23:                                               ; preds = %19
  store i32 0, i32* %2, align 4
  br label %24

24:                                               ; preds = %38, %23
  %25 = load i32, i32* %2, align 4
  %26 = load i32, i32* %4, align 4
  %27 = icmp slt i32 %25, %26
  br i1 %27, label %28, label %41

28:                                               ; preds = %24
  %29 = load i32*, i32** %6, align 8
  %30 = load i32, i32* %1, align 4
  %31 = sext i32 %30 to i64
  %32 = mul nsw i64 %31, %9
  %33 = getelementptr inbounds i32, i32* %29, i64 %32
  %34 = load i32, i32* %2, align 4
  %35 = sext i32 %34 to i64
  %36 = getelementptr inbounds i32, i32* %33, i64 %35
  %37 = call i32 (i8*, ...) @__isoc99_scanf(i8* getelementptr inbounds ([3 x i8], [3 x i8]* @.str.1, i64 0, i64 0), i32* %36)
  br label %38

38:                                               ; preds = %28
  %39 = load i32, i32* %2, align 4
  %40 = add nsw i32 %39, 1
  store i32 %40, i32* %2, align 4
  br label %24

41:                                               ; preds = %24
  br label %42

42:                                               ; preds = %41
  %43 = load i32, i32* %1, align 4
  %44 = add nsw i32 %43, 1
  store i32 %44, i32* %1, align 4
  br label %19

45:                                               ; preds = %19
  store i32 0, i32* %1, align 4
  br label %46

46:                                               ; preds = %85, %45
  %47 = load i32, i32* %1, align 4
  %48 = load i32, i32* %4, align 4
  %49 = icmp slt i32 %47, %48
  br i1 %49, label %50, label %88

50:                                               ; preds = %46
  %51 = load i32, i32* %1, align 4
  %52 = load i32, i32* %3, align 4
  %53 = sub nsw i32 %52, 1
  %54 = icmp sle i32 %51, %53
  br i1 %54, label %55, label %57

55:                                               ; preds = %50
  %56 = load i32, i32* %1, align 4
  br label %60

57:                                               ; preds = %50
  %58 = load i32, i32* %3, align 4
  %59 = sub nsw i32 %58, 1
  br label %60

60:                                               ; preds = %57, %55
  %61 = phi i32 [ %56, %55 ], [ %59, %57 ]
  store i32 %61, i32* %5, align 4
  store i32 0, i32* %2, align 4
  br label %62

62:                                               ; preds = %81, %60
  %63 = load i32, i32* %2, align 4
  %64 = load i32, i32* %5, align 4
  %65 = icmp sle i32 %63, %64
  br i1 %65, label %66, label %84

66:                                               ; preds = %62
  %67 = load i32*, i32** %6, align 8
  %68 = load i32, i32* %2, align 4
  %69 = sext i32 %68 to i64
  %70 = mul nsw i64 %69, %9
  %71 = getelementptr inbounds i32, i32* %67, i64 %70
  %72 = load i32, i32* %1, align 4
  %73 = sext i32 %72 to i64
  %74 = getelementptr inbounds i32, i32* %71, i64 %73
  %75 = load i32, i32* %2, align 4
  %76 = sext i32 %75 to i64
  %77 = sub i64 0, %76
  %78 = getelementptr inbounds i32, i32* %74, i64 %77
  %79 = load i32, i32* %78, align 4
  %80 = call i32 (i8*, ...) @printf(i8* getelementptr inbounds ([4 x i8], [4 x i8]* @.str.2, i64 0, i64 0), i32 %79)
  br label %81

81:                                               ; preds = %66
  %82 = load i32, i32* %2, align 4
  %83 = add nsw i32 %82, 1
  store i32 %83, i32* %2, align 4
  br label %62

84:                                               ; preds = %62
  br label %85

85:                                               ; preds = %84
  %86 = load i32, i32* %1, align 4
  %87 = add nsw i32 %86, 1
  store i32 %87, i32* %1, align 4
  br label %46

88:                                               ; preds = %46
  store i32 0, i32* %2, align 4
  br label %89

89:                                               ; preds = %138, %88
  %90 = load i32, i32* %2, align 4
  %91 = load i32, i32* %3, align 4
  %92 = sub nsw i32 %91, 1
  %93 = icmp slt i32 %90, %92
  br i1 %93, label %94, label %141

94:                                               ; preds = %89
  %95 = load i32, i32* %3, align 4
  %96 = sub nsw i32 %95, 1
  %97 = load i32, i32* %4, align 4
  %98 = load i32, i32* %2, align 4
  %99 = add nsw i32 %97, %98
  %100 = icmp sle i32 %96, %99
  br i1 %100, label %101, label %104

101:                                              ; preds = %94
  %102 = load i32, i32* %3, align 4
  %103 = sub nsw i32 %102, 1
  br label %108

104:                                              ; preds = %94
  %105 = load i32, i32* %4, align 4
  %106 = load i32, i32* %2, align 4
  %107 = add nsw i32 %105, %106
  br label %108

108:                                              ; preds = %104, %101
  %109 = phi i32 [ %103, %101 ], [ %107, %104 ]
  store i32 %109, i32* %5, align 4
  %110 = load i32, i32* %2, align 4
  %111 = add nsw i32 1, %110
  store i32 %111, i32* %1, align 4
  br label %112

112:                                              ; preds = %134, %108
  %113 = load i32, i32* %1, align 4
  %114 = load i32, i32* %5, align 4
  %115 = icmp sle i32 %113, %114
  br i1 %115, label %116, label %137

116:                                              ; preds = %112
  %117 = load i32*, i32** %6, align 8
  %118 = load i32, i32* %1, align 4
  %119 = sext i32 %118 to i64
  %120 = mul nsw i64 %119, %9
  %121 = getelementptr inbounds i32, i32* %117, i64 %120
  %122 = load i32, i32* %4, align 4
  %123 = sext i32 %122 to i64
  %124 = getelementptr inbounds i32, i32* %121, i64 %123
  %125 = load i32, i32* %1, align 4
  %126 = sext i32 %125 to i64
  %127 = sub i64 0, %126
  %128 = getelementptr inbounds i32, i32* %124, i64 %127
  %129 = load i32, i32* %2, align 4
  %130 = sext i32 %129 to i64
  %131 = getelementptr inbounds i32, i32* %128, i64 %130
  %132 = load i32, i32* %131, align 4
  %133 = call i32 (i8*, ...) @printf(i8* getelementptr inbounds ([4 x i8], [4 x i8]* @.str.2, i64 0, i64 0), i32 %132)
  br label %134

134:                                              ; preds = %116
  %135 = load i32, i32* %1, align 4
  %136 = add nsw i32 %135, 1
  store i32 %136, i32* %1, align 4
  br label %112

137:                                              ; preds = %112
  br label %138

138:                                              ; preds = %137
  %139 = load i32, i32* %2, align 4
  %140 = add nsw i32 %139, 1
  store i32 %140, i32* %2, align 4
  br label %89

141:                                              ; preds = %89
  ret void
}

declare dso_local i32 @__isoc99_scanf(i8*, ...) #1

; Function Attrs: nounwind
declare dso_local noalias i8* @calloc(i64, i64) #2

declare dso_local i32 @printf(i8*, ...) #1


!llvm.module.flags = !{!0}
!llvm.ident = !{!1}

!0 = !{i32 1, !"wchar_size", i32 4}
!1 = !{!"clang version 10.0.0-4ubuntu1 "}
